; Function Attrs: mustprogress uwtable
define noundef zeroext i1 @_ZN32pxrInternal_v0_24__pxrReserved__16UsdGeomCapsule_113ComputeExtentEdddRKNS_7TfTokenERKNS_10GfMatrix4dEPNS_7VtArrayINS_7GfVec3fEEE(double noundef %0, double noundef %1, double noundef %2, ptr nocapture noundef nonnull readonly align 8 dereferenceable(8) %3, ptr noundef nonnull align 8 dereferenceable(128) %4, ptr noundef nonnull %5) local_unnamed_addr #8 align 2 {
  %7 = alloca %"class.pxrInternal_v0_24__pxrReserved__::GfVec3f", align 4
  %8 = alloca %"class.pxrInternal_v0_24__pxrReserved__::GfBBox3d", align 8
  %9 = alloca %"class.pxrInternal_v0_24__pxrReserved__::GfRange3d", align 8
  tail call void @_ZN32pxrInternal_v0_24__pxrReserved__7VtArrayINS_7GfVec3fEE6resizeEm(ptr noundef nonnull align 8 dereferenceable(40) %5, i64 noundef 2)
  %10 = call fastcc noundef zeroext i1 @_ZN32pxrInternal_v0_24__pxrReserved__L17_ComputeExtentMaxEdddRKNS_7TfTokenEPNS_7GfVec3fE(double noundef %0, double noundef %1, double noundef %2, ptr noundef nonnull align 8 dereferenceable(8) %3, ptr noundef nonnull %7)
  br i1 %10, label %11, label %51

11:                                               ; preds = %6
  %12 = load float, ptr %7, align 4
  %13 = fneg float %12
  %14 = getelementptr inbounds i8, ptr %7, i64 4
  %15 = load float, ptr %14, align 4
  %16 = fneg float %15
  %17 = getelementptr inbounds i8, ptr %7, i64 8
  %18 = load float, ptr %17, align 4
  %19 = fneg float %18
  %20 = fpext float %13 to double
  %21 = fpext float %16 to double
  %22 = fpext float %19 to double
  %23 = fpext float %12 to double
  %24 = fpext float %15 to double
  %25 = fpext float %18 to double
  %26 = getelementptr inbounds i8, ptr %8, i64 16
  %27 = getelementptr inbounds i8, ptr %8, i64 8
  %28 = getelementptr inbounds nuw i8, ptr %8, i64 24
  %29 = getelementptr inbounds i8, ptr %8, i64 40
  %30 = getelementptr inbounds i8, ptr %8, i64 32
  store double %20, ptr %8, align 8
  store double %21, ptr %27, align 8
  store double %22, ptr %26, align 8
  store double %23, ptr %28, align 8
  store double %24, ptr %30, align 8
  store double %25, ptr %29, align 8
  call void @_ZN32pxrInternal_v0_24__pxrReserved__8GfBBox3d12_SetMatricesERKNS_10GfMatrix4dE(ptr noundef nonnull align 8 dereferenceable(306) %8, ptr noundef nonnull align 8 dereferenceable(128) %4)
  %31 = getelementptr inbounds nuw i8, ptr %8, i64 305
  store i8 0, ptr %31, align 1
  call void @_ZNK32pxrInternal_v0_24__pxrReserved__8GfBBox3d19ComputeAlignedRangeEv(ptr dead_on_unwind nonnull writable sret(%"class.pxrInternal_v0_24__pxrReserved__::GfRange3d") align 8 %9, ptr noundef nonnull align 8 dereferenceable(306) %8)
  %32 = load double, ptr %9, align 8
  %33 = fptrunc double %32 to float
  %34 = getelementptr inbounds i8, ptr %9, i64 8
  %35 = load double, ptr %34, align 8
  %36 = fptrunc double %35 to float
  %37 = getelementptr inbounds i8, ptr %9, i64 16
  %38 = load double, ptr %37, align 8
  %39 = fptrunc double %38 to float
  %40 = call noundef nonnull align 4 dereferenceable(12) ptr @_ZN32pxrInternal_v0_24__pxrReserved__7VtArrayINS_7GfVec3fEEixEm(ptr noundef nonnull align 8 dereferenceable(40) %5, i64 noundef 0)
  store float %33, ptr %40, align 4
  %.sroa.211.0..sroa_idx = getelementptr inbounds i8, ptr %40, i64 4
  store float %36, ptr %.sroa.211.0..sroa_idx, align 4
  %.sroa.312.0..sroa_idx = getelementptr inbounds i8, ptr %40, i64 8
  store float %39, ptr %.sroa.312.0..sroa_idx, align 4
  %41 = getelementptr inbounds nuw i8, ptr %9, i64 24
  %42 = load double, ptr %41, align 8
  %43 = fptrunc double %42 to float
  %44 = getelementptr inbounds i8, ptr %9, i64 32
  %45 = load double, ptr %44, align 8
  %46 = fptrunc double %45 to float
  %47 = getelementptr inbounds i8, ptr %9, i64 40
  %48 = load double, ptr %47, align 8
  %49 = fptrunc double %48 to float
  %50 = call noundef nonnull align 4 dereferenceable(12) ptr @_ZN32pxrInternal_v0_24__pxrReserved__7VtArrayINS_7GfVec3fEEixEm(ptr noundef nonnull align 8 dereferenceable(40) %5, i64 noundef 1)
  store float %43, ptr %50, align 4
  %.sroa.2.0..sroa_idx9 = getelementptr inbounds i8, ptr %50, i64 4
  store float %46, ptr %.sroa.2.0..sroa_idx9, align 4
  %.sroa.3.0..sroa_idx = getelementptr inbounds i8, ptr %50, i64 8
  store float %49, ptr %.sroa.3.0..sroa_idx, align 4
  br label %51

51:                                               ; preds = %6, %11
  ret i1 %10
}